
GccApplication1.elf:     file format elf32-avr32

Sections:
Idx Name          Size      VMA       LMA       File off  Algn
  0 .reset        00000008  80000000  80000000  00000400  2**2
                  CONTENTS, ALLOC, LOAD, READONLY, CODE
  1 .rela.got     00000000  80000008  80000008  00000408  2**2
                  CONTENTS, ALLOC, LOAD, READONLY, DATA
  2 .init         0000001c  80000008  80000008  00000408  2**2
                  CONTENTS, ALLOC, LOAD, READONLY, CODE
  3 .text         00000a44  80000024  80000024  00000424  2**2
                  CONTENTS, ALLOC, LOAD, READONLY, CODE
  4 .fini         00000018  80000a68  80000a68  00000e68  2**2
                  CONTENTS, ALLOC, LOAD, READONLY, CODE
  5 .rodata       00000068  80000a80  80000a80  00000e80  2**2
                  CONTENTS, ALLOC, LOAD, READONLY, DATA
  6 .ctors        00000008  00000004  80000ae8  00001004  2**2
                  CONTENTS, ALLOC, LOAD, DATA
  7 .dtors        00000008  0000000c  80000af0  0000100c  2**2
                  CONTENTS, ALLOC, LOAD, DATA
  8 .jcr          00000004  00000014  80000af8  00001014  2**2
                  CONTENTS, ALLOC, LOAD, DATA
  9 .got          0000000c  00000018  80000afc  00001018  2**2
                  CONTENTS, ALLOC, LOAD, DATA
 10 .data         00000504  00000024  80000b08  00001024  2**2
                  CONTENTS, ALLOC, LOAD, DATA
 11 .bss          00000068  00000528  8000100c  00001528  2**2
                  ALLOC
 12 .comment      00000030  00000000  00000000  00001528  2**0
                  CONTENTS, READONLY
 13 .debug_aranges 00000320  00000000  00000000  00001558  2**0
                  CONTENTS, READONLY, DEBUGGING
 14 .debug_pubnames 0000055a  00000000  00000000  00001878  2**0
                  CONTENTS, READONLY, DEBUGGING
 15 .debug_info   000087f4  00000000  00000000  00001dd2  2**0
                  CONTENTS, READONLY, DEBUGGING
 16 .debug_abbrev 000017b9  00000000  00000000  0000a5c6  2**0
                  CONTENTS, READONLY, DEBUGGING
 17 .debug_line   00002bf6  00000000  00000000  0000bd7f  2**0
                  CONTENTS, READONLY, DEBUGGING
 18 .debug_frame  000006b8  00000000  00000000  0000e978  2**2
                  CONTENTS, READONLY, DEBUGGING
 19 .debug_str    0000136d  00000000  00000000  0000f030  2**0
                  CONTENTS, READONLY, DEBUGGING
 20 .debug_loc    00001149  00000000  00000000  0001039d  2**0
                  CONTENTS, READONLY, DEBUGGING
 21 .debug_macinfo 0012f3a9  00000000  00000000  000114e6  2**0
                  CONTENTS, READONLY, DEBUGGING
 22 .stack        00001000  00003000  00003000  00000400  2**0
                  ALLOC
 23 .debug_ranges 000002e8  00000000  00000000  0014088f  2**0
                  CONTENTS, READONLY, DEBUGGING

Disassembly of section .reset:

80000000 <_start>:
80000000:	48 1f       	lddpc	pc,80000004 <_start+0x4>
80000002:	00 00       	add	r0,r0
80000004:	80 00       	ld.sh	r0,r0[0x0]
80000006:	00 24       	rsub	r4,r0

Disassembly of section .init:

80000008 <_init>:
80000008:	eb cd 40 40 	pushm	r6,lr
8000000c:	48 26       	lddpc	r6,80000014 <_init+0xc>
8000000e:	1e 26       	rsub	r6,pc
80000010:	c0 48       	rjmp	80000018 <_init+0x10>
80000012:	00 00       	add	r0,r0
80000014:	7f ff       	ld.w	pc,pc[0x7c]
80000016:	ff f6 f0 16 	ld.wal	r6,pc[0x58]
8000001a:	00 01       	add	r1,r0
8000001c:	f0 16 00 00 	mcall	r6[0]
80000020:	e3 cd 80 40 	ldm	sp++,r6,pc

Disassembly of section .text:

80000024 <_stext>:
80000024:	30 07       	mov	r7,0
80000026:	49 5a       	lddpc	r10,80000078 <_stext+0x54>
80000028:	5b fa       	cp.w	r10,-1
8000002a:	f4 0d 17 10 	movne	sp,r10
8000002e:	49 4b       	lddpc	r11,8000007c <_stext+0x58>
80000030:	49 4c       	lddpc	r12,80000080 <_stext+0x5c>
80000032:	18 3b       	cp.w	r11,r12
80000034:	c0 60       	breq	80000040 <_stext+0x1c>
80000036:	49 4a       	lddpc	r10,80000084 <_stext+0x60>
80000038:	b7 09       	ld.d	r8,r11++
8000003a:	b9 28       	st.d	r12++,r8
8000003c:	14 3c       	cp.w	r12,r10
8000003e:	cf d5       	brlt	80000038 <_stext+0x14>
80000040:	49 2a       	lddpc	r10,80000088 <_stext+0x64>
80000042:	49 1c       	lddpc	r12,80000084 <_stext+0x60>
80000044:	30 08       	mov	r8,0
80000046:	30 09       	mov	r9,0
80000048:	b9 28       	st.d	r12++,r8
8000004a:	14 3c       	cp.w	r12,r10
8000004c:	cf e5       	brlt	80000048 <_stext+0x24>
8000004e:	f0 1f 00 10 	mcall	8000008c <_stext+0x68>
80000052:	49 0c       	lddpc	r12,80000090 <_stext+0x6c>
80000054:	f0 1f 00 10 	mcall	80000094 <_stext+0x70>
80000058:	f0 1f 00 10 	mcall	80000098 <_stext+0x74>
8000005c:	1a 9c       	mov	r12,sp
8000005e:	30 0b       	mov	r11,0
80000060:	f0 1f 00 0f 	mcall	8000009c <_stext+0x78>
80000064:	5b fc       	cp.w	r12,-1
80000066:	f9 bc 00 00 	moveq	r12,0
8000006a:	f9 ba 00 00 	moveq	r10,0
8000006e:	14 1d       	sub	sp,r10
80000070:	f0 1f 00 0c 	mcall	800000a0 <_stext+0x7c>
80000074:	f0 1f 00 0c 	mcall	800000a4 <_stext+0x80>
80000078:	00 00       	add	r0,r0
8000007a:	40 00       	lddsp	r0,sp[0x0]
8000007c:	80 00       	ld.sh	r0,r0[0x0]
8000007e:	0a e8       	st.h	--r5,r8
80000080:	00 00       	add	r0,r0
80000082:	00 04       	add	r4,r0
80000084:	00 00       	add	r0,r0
80000086:	05 28       	ld.uh	r8,r2++
80000088:	00 00       	add	r0,r0
8000008a:	05 90       	ld.ub	r0,r2[0x1]
8000008c:	80 00       	ld.sh	r0,r0[0x0]
8000008e:	01 78       	ld.ub	r8,--r0
80000090:	80 00       	ld.sh	r0,r0[0x0]
80000092:	0a 68       	and	r8,r5
80000094:	80 00       	ld.sh	r0,r0[0x0]
80000096:	01 3c       	ld.ub	r12,r0++
80000098:	80 00       	ld.sh	r0,r0[0x0]
8000009a:	00 08       	add	r8,r0
8000009c:	80 00       	ld.sh	r0,r0[0x0]
8000009e:	01 7a       	ld.ub	r10,--r0
800000a0:	80 00       	ld.sh	r0,r0[0x0]
800000a2:	01 0c       	ld.w	r12,r0++
800000a4:	80 00       	ld.sh	r0,r0[0x0]
800000a6:	01 50       	ld.sh	r0,--r0

800000a8 <__do_global_dtors_aux>:
800000a8:	d4 21       	pushm	r4-r7,lr
800000aa:	48 e8       	lddpc	r8,800000e0 <__do_global_dtors_aux+0x38>
800000ac:	11 89       	ld.ub	r9,r8[0x0]
800000ae:	30 08       	mov	r8,0
800000b0:	f0 09 18 00 	cp.b	r9,r8
800000b4:	c1 41       	brne	800000dc <__do_global_dtors_aux+0x34>
800000b6:	48 c8       	lddpc	r8,800000e4 <__do_global_dtors_aux+0x3c>
800000b8:	48 c6       	lddpc	r6,800000e8 <__do_global_dtors_aux+0x40>
800000ba:	10 95       	mov	r5,r8
800000bc:	10 16       	sub	r6,r8
800000be:	48 c7       	lddpc	r7,800000ec <__do_global_dtors_aux+0x44>
800000c0:	a3 46       	asr	r6,0x2
800000c2:	20 16       	sub	r6,1
800000c4:	c0 68       	rjmp	800000d0 <__do_global_dtors_aux+0x28>
800000c6:	2f f8       	sub	r8,-1
800000c8:	8f 08       	st.w	r7[0x0],r8
800000ca:	ea 08 03 28 	ld.w	r8,r5[r8<<0x2]
800000ce:	5d 18       	icall	r8
800000d0:	6e 08       	ld.w	r8,r7[0x0]
800000d2:	0c 38       	cp.w	r8,r6
800000d4:	cf 93       	brcs	800000c6 <__do_global_dtors_aux+0x1e>
800000d6:	30 19       	mov	r9,1
800000d8:	48 28       	lddpc	r8,800000e0 <__do_global_dtors_aux+0x38>
800000da:	b0 89       	st.b	r8[0x0],r9
800000dc:	d8 22       	popm	r4-r7,pc
800000de:	00 00       	add	r0,r0
800000e0:	00 00       	add	r0,r0
800000e2:	05 28       	ld.uh	r8,r2++
800000e4:	00 00       	add	r0,r0
800000e6:	00 0c       	add	r12,r0
800000e8:	00 00       	add	r0,r0
800000ea:	00 10       	sub	r0,r0
800000ec:	00 00       	add	r0,r0
800000ee:	05 2c       	ld.uh	r12,r2++

800000f0 <frame_dummy>:
800000f0:	d4 01       	pushm	lr
800000f2:	48 5c       	lddpc	r12,80000104 <frame_dummy+0x14>
800000f4:	78 08       	ld.w	r8,r12[0x0]
800000f6:	58 08       	cp.w	r8,0
800000f8:	c0 50       	breq	80000102 <frame_dummy+0x12>
800000fa:	48 48       	lddpc	r8,80000108 <frame_dummy+0x18>
800000fc:	58 08       	cp.w	r8,0
800000fe:	c0 20       	breq	80000102 <frame_dummy+0x12>
80000100:	5d 18       	icall	r8
80000102:	d8 02       	popm	pc
80000104:	00 00       	add	r0,r0
80000106:	00 14       	sub	r4,r0
80000108:	00 00       	add	r0,r0
	...

8000010c <main>:

struct avr32_rtc_t rtc;

int main(void)
{
	rtc.ctrl=0;
8000010c:	30 09       	mov	r9,0
8000010e:	48 b8       	lddpc	r8,80000138 <main+0x2c>
80000110:	91 09       	st.w	r8[0x0],r9
	AVR32_GPIO.port[3].gpers=OP_EN;
80000112:	fe 78 20 00 	mov	r8,-57344
80000116:	e0 69 1f 04 	mov	r9,7940
8000011a:	ea 19 79 00 	orh	r9,0x7900
8000011e:	f1 49 06 04 	st.w	r8[1540],r9
	AVR32_GPIO.port[3].oders=OP_EN;
80000122:	f1 49 06 44 	st.w	r8[1604],r9
	
    while(1)
    {
		AVR32_GPIO.port[3].ovrs=OP1;
80000126:	10 99       	mov	r9,r8
80000128:	fc 18 40 00 	movh	r8,0x4000
8000012c:	f3 48 06 54 	st.w	r9[1620],r8
		AVR32_GPIO.port[3].ovrc=OP1;
80000130:	f3 48 06 58 	st.w	r9[1624],r8
80000134:	cf cb       	rjmp	8000012c <main+0x20>
80000136:	00 00       	add	r0,r0
80000138:	00 00       	add	r0,r0
8000013a:	05 68       	ld.uh	r8,--r2

8000013c <atexit>:
8000013c:	d4 01       	pushm	lr
8000013e:	30 09       	mov	r9,0
80000140:	18 9b       	mov	r11,r12
80000142:	12 9a       	mov	r10,r9
80000144:	12 9c       	mov	r12,r9
80000146:	f0 1f 00 02 	mcall	8000014c <atexit+0x10>
8000014a:	d8 02       	popm	pc
8000014c:	80 00       	ld.sh	r0,r0[0x0]
8000014e:	01 d0       	ld.ub	r0,r0[0x5]

80000150 <exit>:
80000150:	d4 21       	pushm	r4-r7,lr
80000152:	30 0b       	mov	r11,0
80000154:	18 97       	mov	r7,r12
80000156:	f0 1f 00 06 	mcall	8000016c <exit+0x1c>
8000015a:	48 68       	lddpc	r8,80000170 <exit+0x20>
8000015c:	70 0c       	ld.w	r12,r8[0x0]
8000015e:	78 a8       	ld.w	r8,r12[0x28]
80000160:	58 08       	cp.w	r8,0
80000162:	c0 20       	breq	80000166 <exit+0x16>
80000164:	5d 18       	icall	r8
80000166:	0e 9c       	mov	r12,r7
80000168:	f0 1f 00 03 	mcall	80000174 <exit+0x24>
8000016c:	80 00       	ld.sh	r0,r0[0x0]
8000016e:	02 7c       	tst	r12,r1
80000170:	80 00       	ld.sh	r0,r0[0x0]
80000172:	0a 84       	andn	r4,r5
80000174:	80 00       	ld.sh	r0,r0[0x0]
80000176:	01 84       	ld.ub	r4,r0[0x0]

80000178 <_init_startup>:
80000178:	5e fd       	retal	0

8000017a <_init_argv>:
8000017a:	30 e8       	mov	r8,14
8000017c:	d6 73       	breakpoint
8000017e:	3f fc       	mov	r12,-1
80000180:	35 8b       	mov	r11,88
80000182:	5e fc       	retal	r12

80000184 <_exit>:
80000184:	30 d8       	mov	r8,13
80000186:	d6 73       	breakpoint
80000188:	3f fc       	mov	r12,-1
8000018a:	35 8b       	mov	r11,88
8000018c:	c0 08       	rjmp	8000018c <_exit+0x8>
8000018e:	d7 03       	nop

80000190 <_sbrk>:
80000190:	d4 01       	pushm	lr
80000192:	48 c8       	lddpc	r8,800001c0 <_sbrk+0x30>
80000194:	70 09       	ld.w	r9,r8[0x0]
80000196:	58 09       	cp.w	r9,0
80000198:	c0 31       	brne	8000019e <_sbrk+0xe>
8000019a:	48 b9       	lddpc	r9,800001c4 <_sbrk+0x34>
8000019c:	91 09       	st.w	r8[0x0],r9
8000019e:	48 99       	lddpc	r9,800001c0 <_sbrk+0x30>
800001a0:	48 aa       	lddpc	r10,800001c8 <_sbrk+0x38>
800001a2:	72 08       	ld.w	r8,r9[0x0]
800001a4:	f0 0c 00 0c 	add	r12,r8,r12
800001a8:	14 3c       	cp.w	r12,r10
800001aa:	e0 8b 00 04 	brhi	800001b2 <_sbrk+0x22>
800001ae:	93 0c       	st.w	r9[0x0],r12
800001b0:	c0 68       	rjmp	800001bc <_sbrk+0x2c>
800001b2:	f0 1f 00 07 	mcall	800001cc <_sbrk+0x3c>
800001b6:	30 c8       	mov	r8,12
800001b8:	99 08       	st.w	r12[0x0],r8
800001ba:	3f f8       	mov	r8,-1
800001bc:	10 9c       	mov	r12,r8
800001be:	d8 02       	popm	pc
800001c0:	00 00       	add	r0,r0
800001c2:	05 30       	ld.ub	r0,r2++
800001c4:	00 00       	add	r0,r0
800001c6:	05 90       	ld.ub	r0,r2[0x1]
800001c8:	00 00       	add	r0,r0
800001ca:	30 00       	mov	r0,0
800001cc:	80 00       	ld.sh	r0,r0[0x0]
800001ce:	03 50       	ld.sh	r0,--r1

800001d0 <__register_exitproc>:
800001d0:	d4 31       	pushm	r0-r7,lr
800001d2:	4a 98       	lddpc	r8,80000274 <__register_exitproc+0xa4>
800001d4:	70 03       	ld.w	r3,r8[0x0]
800001d6:	67 24       	ld.w	r4,r3[0x48]
800001d8:	e6 c8 ff b4 	sub	r8,r3,-76
800001dc:	58 04       	cp.w	r4,0
800001de:	f0 04 17 00 	moveq	r4,r8
800001e2:	e7 f4 0a 12 	st.weq	r3[0x48],r4
800001e6:	18 97       	mov	r7,r12
800001e8:	16 96       	mov	r6,r11
800001ea:	14 95       	mov	r5,r10
800001ec:	12 92       	mov	r2,r9
800001ee:	68 18       	ld.w	r8,r4[0x4]
800001f0:	59 f8       	cp.w	r8,31
800001f2:	e0 8a 00 0e 	brle	8000020e <__register_exitproc+0x3e>
800001f6:	e0 6c 00 8c 	mov	r12,140
800001fa:	f0 1f 00 20 	mcall	80000278 <__register_exitproc+0xa8>
800001fe:	18 94       	mov	r4,r12
80000200:	c3 80       	breq	80000270 <__register_exitproc+0xa0>
80000202:	67 28       	ld.w	r8,r3[0x48]
80000204:	99 08       	st.w	r12[0x0],r8
80000206:	e7 4c 00 48 	st.w	r3[72],r12
8000020a:	30 08       	mov	r8,0
8000020c:	99 18       	st.w	r12[0x4],r8
8000020e:	58 07       	cp.w	r7,0
80000210:	c2 70       	breq	8000025e <__register_exitproc+0x8e>
80000212:	e8 fc 00 88 	ld.w	r12,r4[136]
80000216:	58 0c       	cp.w	r12,0
80000218:	c0 d1       	brne	80000232 <__register_exitproc+0x62>
8000021a:	e0 6c 01 08 	mov	r12,264
8000021e:	f0 1f 00 17 	mcall	80000278 <__register_exitproc+0xa8>
80000222:	c2 70       	breq	80000270 <__register_exitproc+0xa0>
80000224:	30 08       	mov	r8,0
80000226:	e9 4c 00 88 	st.w	r4[136],r12
8000022a:	f9 48 01 04 	st.w	r12[260],r8
8000022e:	f9 48 01 00 	st.w	r12[256],r8
80000232:	68 18       	ld.w	r8,r4[0x4]
80000234:	f0 c9 ff e0 	sub	r9,r8,-32
80000238:	f8 08 09 25 	st.w	r12[r8<<0x2],r5
8000023c:	f8 09 09 22 	st.w	r12[r9<<0x2],r2
80000240:	30 1a       	mov	r10,1
80000242:	f8 f9 01 00 	ld.w	r9,r12[256]
80000246:	f4 08 09 48 	lsl	r8,r10,r8
8000024a:	10 49       	or	r9,r8
8000024c:	f9 49 01 00 	st.w	r12[256],r9
80000250:	58 27       	cp.w	r7,2
80000252:	f9 f9 00 41 	ld.weq	r9,r12[0x104]
80000256:	f3 d8 e0 38 	oreq	r8,r9,r8
8000025a:	f9 f8 0a 41 	st.weq	r12[0x104],r8
8000025e:	68 18       	ld.w	r8,r4[0x4]
80000260:	30 0c       	mov	r12,0
80000262:	f0 c9 ff ff 	sub	r9,r8,-1
80000266:	2f e8       	sub	r8,-2
80000268:	89 19       	st.w	r4[0x4],r9
8000026a:	e8 08 09 26 	st.w	r4[r8<<0x2],r6
8000026e:	d8 32       	popm	r0-r7,pc
80000270:	dc 3a       	popm	r0-r7,pc,r12=-1
80000272:	00 00       	add	r0,r0
80000274:	80 00       	ld.sh	r0,r0[0x0]
80000276:	0a 84       	andn	r4,r5
80000278:	80 00       	ld.sh	r0,r0[0x0]
8000027a:	03 74       	ld.ub	r4,--r1

8000027c <__call_exitprocs>:
8000027c:	d4 31       	pushm	r0-r7,lr
8000027e:	20 3d       	sub	sp,12
80000280:	4b 28       	lddpc	r8,80000348 <__call_exitprocs+0xcc>
80000282:	50 2c       	stdsp	sp[0x8],r12
80000284:	70 08       	ld.w	r8,r8[0x0]
80000286:	16 91       	mov	r1,r11
80000288:	50 08       	stdsp	sp[0x0],r8
8000028a:	2b 88       	sub	r8,-72
8000028c:	50 18       	stdsp	sp[0x4],r8
8000028e:	40 0a       	lddsp	r10,sp[0x0]
80000290:	40 14       	lddsp	r4,sp[0x4]
80000292:	75 27       	ld.w	r7,r10[0x48]
80000294:	c5 58       	rjmp	8000033e <__call_exitprocs+0xc2>
80000296:	6e 15       	ld.w	r5,r7[0x4]
80000298:	ee f6 00 88 	ld.w	r6,r7[136]
8000029c:	ea c2 ff ff 	sub	r2,r5,-1
800002a0:	20 15       	sub	r5,1
800002a2:	ee 02 00 22 	add	r2,r7,r2<<0x2
800002a6:	ec 05 00 23 	add	r3,r6,r5<<0x2
800002aa:	c3 58       	rjmp	80000314 <__call_exitprocs+0x98>
800002ac:	58 01       	cp.w	r1,0
800002ae:	c0 70       	breq	800002bc <__call_exitprocs+0x40>
800002b0:	58 06       	cp.w	r6,0
800002b2:	c2 e0       	breq	8000030e <__call_exitprocs+0x92>
800002b4:	e6 f8 00 80 	ld.w	r8,r3[128]
800002b8:	02 38       	cp.w	r8,r1
800002ba:	c2 a1       	brne	8000030e <__call_exitprocs+0x92>
800002bc:	6e 19       	ld.w	r9,r7[0x4]
800002be:	64 08       	ld.w	r8,r2[0x0]
800002c0:	20 19       	sub	r9,1
800002c2:	12 35       	cp.w	r5,r9
800002c4:	ef f5 0a 01 	st.weq	r7[0x4],r5
800002c8:	f9 b9 01 00 	movne	r9,0
800002cc:	e5 f9 1a 00 	st.wne	r2[0x0],r9
800002d0:	58 08       	cp.w	r8,0
800002d2:	c1 e0       	breq	8000030e <__call_exitprocs+0x92>
800002d4:	6e 10       	ld.w	r0,r7[0x4]
800002d6:	58 06       	cp.w	r6,0
800002d8:	c0 90       	breq	800002ea <__call_exitprocs+0x6e>
800002da:	30 1a       	mov	r10,1
800002dc:	f4 05 09 49 	lsl	r9,r10,r5
800002e0:	ec fa 01 00 	ld.w	r10,r6[256]
800002e4:	f3 ea 00 0a 	and	r10,r9,r10
800002e8:	c0 31       	brne	800002ee <__call_exitprocs+0x72>
800002ea:	5d 18       	icall	r8
800002ec:	c0 b8       	rjmp	80000302 <__call_exitprocs+0x86>
800002ee:	ec fa 01 04 	ld.w	r10,r6[260]
800002f2:	66 0b       	ld.w	r11,r3[0x0]
800002f4:	14 69       	and	r9,r10
800002f6:	c0 41       	brne	800002fe <__call_exitprocs+0x82>
800002f8:	40 2c       	lddsp	r12,sp[0x8]
800002fa:	5d 18       	icall	r8
800002fc:	c0 38       	rjmp	80000302 <__call_exitprocs+0x86>
800002fe:	16 9c       	mov	r12,r11
80000300:	5d 18       	icall	r8
80000302:	6e 18       	ld.w	r8,r7[0x4]
80000304:	10 30       	cp.w	r0,r8
80000306:	cc 41       	brne	8000028e <__call_exitprocs+0x12>
80000308:	68 08       	ld.w	r8,r4[0x0]
8000030a:	0e 38       	cp.w	r8,r7
8000030c:	cc 11       	brne	8000028e <__call_exitprocs+0x12>
8000030e:	20 15       	sub	r5,1
80000310:	20 43       	sub	r3,4
80000312:	20 42       	sub	r2,4
80000314:	58 05       	cp.w	r5,0
80000316:	cc b4       	brge	800002ac <__call_exitprocs+0x30>
80000318:	6e 18       	ld.w	r8,r7[0x4]
8000031a:	58 08       	cp.w	r8,0
8000031c:	c0 f1       	brne	8000033a <__call_exitprocs+0xbe>
8000031e:	6e 08       	ld.w	r8,r7[0x0]
80000320:	58 08       	cp.w	r8,0
80000322:	c0 c0       	breq	8000033a <__call_exitprocs+0xbe>
80000324:	89 08       	st.w	r4[0x0],r8
80000326:	58 06       	cp.w	r6,0
80000328:	c0 40       	breq	80000330 <__call_exitprocs+0xb4>
8000032a:	0c 9c       	mov	r12,r6
8000032c:	f0 1f 00 08 	mcall	8000034c <__call_exitprocs+0xd0>
80000330:	0e 9c       	mov	r12,r7
80000332:	f0 1f 00 07 	mcall	8000034c <__call_exitprocs+0xd0>
80000336:	68 07       	ld.w	r7,r4[0x0]
80000338:	c0 38       	rjmp	8000033e <__call_exitprocs+0xc2>
8000033a:	0e 94       	mov	r4,r7
8000033c:	6e 07       	ld.w	r7,r7[0x0]
8000033e:	58 07       	cp.w	r7,0
80000340:	ca b1       	brne	80000296 <__call_exitprocs+0x1a>
80000342:	2f dd       	sub	sp,-12
80000344:	d8 32       	popm	r0-r7,pc
80000346:	00 00       	add	r0,r0
80000348:	80 00       	ld.sh	r0,r0[0x0]
8000034a:	0a 84       	andn	r4,r5
8000034c:	80 00       	ld.sh	r0,r0[0x0]
8000034e:	03 5c       	ld.sh	r12,--r1

80000350 <__errno>:
80000350:	48 28       	lddpc	r8,80000358 <__errno+0x8>
80000352:	70 0c       	ld.w	r12,r8[0x0]
80000354:	2f 4c       	sub	r12,-12
80000356:	5e fc       	retal	r12
80000358:	00 00       	add	r0,r0
8000035a:	01 14       	ld.sh	r4,r0++

8000035c <free>:
8000035c:	d4 01       	pushm	lr
8000035e:	48 48       	lddpc	r8,8000036c <free+0x10>
80000360:	18 9b       	mov	r11,r12
80000362:	70 0c       	ld.w	r12,r8[0x0]
80000364:	f0 1f 00 03 	mcall	80000370 <free+0x14>
80000368:	d8 02       	popm	pc
8000036a:	00 00       	add	r0,r0
8000036c:	00 00       	add	r0,r0
8000036e:	01 14       	ld.sh	r4,r0++
80000370:	80 00       	ld.sh	r0,r0[0x0]
80000372:	08 b0       	st.h	r4++,r0

80000374 <malloc>:
80000374:	d4 01       	pushm	lr
80000376:	48 48       	lddpc	r8,80000384 <malloc+0x10>
80000378:	18 9b       	mov	r11,r12
8000037a:	70 0c       	ld.w	r12,r8[0x0]
8000037c:	f0 1f 00 03 	mcall	80000388 <malloc+0x14>
80000380:	d8 02       	popm	pc
80000382:	00 00       	add	r0,r0
80000384:	00 00       	add	r0,r0
80000386:	01 14       	ld.sh	r4,r0++
80000388:	80 00       	ld.sh	r0,r0[0x0]
8000038a:	03 8c       	ld.ub	r12,r1[0x0]

8000038c <_malloc_r>:
8000038c:	d4 31       	pushm	r0-r7,lr
8000038e:	f6 c8 ff f5 	sub	r8,r11,-11
80000392:	18 95       	mov	r5,r12
80000394:	10 97       	mov	r7,r8
80000396:	e0 17 ff f8 	andl	r7,0xfff8
8000039a:	59 68       	cp.w	r8,22
8000039c:	f9 b7 08 10 	movls	r7,16
800003a0:	16 37       	cp.w	r7,r11
800003a2:	5f 38       	srlo	r8
800003a4:	f1 e7 13 f8 	or	r8,r8,r7>>0x1f
800003a8:	c0 50       	breq	800003b2 <_malloc_r+0x26>
800003aa:	30 c8       	mov	r8,12
800003ac:	99 38       	st.w	r12[0xc],r8
800003ae:	e0 8f 01 f3 	bral	80000794 <_malloc_r+0x408>
800003b2:	f0 1f 00 50 	mcall	800004f0 <_malloc_r+0x164>
800003b6:	e0 47 01 f7 	cp.w	r7,503
800003ba:	e0 8b 00 1c 	brhi	800003f2 <_malloc_r+0x66>
800003be:	ee 03 16 03 	lsr	r3,r7,0x3
800003c2:	4c d8       	lddpc	r8,800004f4 <_malloc_r+0x168>
800003c4:	f0 03 00 38 	add	r8,r8,r3<<0x3
800003c8:	70 36       	ld.w	r6,r8[0xc]
800003ca:	10 36       	cp.w	r6,r8
800003cc:	c0 61       	brne	800003d8 <_malloc_r+0x4c>
800003ce:	ec c8 ff f8 	sub	r8,r6,-8
800003d2:	70 36       	ld.w	r6,r8[0xc]
800003d4:	10 36       	cp.w	r6,r8
800003d6:	c0 c0       	breq	800003ee <_malloc_r+0x62>
800003d8:	6c 18       	ld.w	r8,r6[0x4]
800003da:	e0 18 ff fc 	andl	r8,0xfffc
800003de:	6c 3a       	ld.w	r10,r6[0xc]
800003e0:	ec 08 00 09 	add	r9,r6,r8
800003e4:	0a 9c       	mov	r12,r5
800003e6:	6c 28       	ld.w	r8,r6[0x8]
800003e8:	95 28       	st.w	r10[0x8],r8
800003ea:	91 3a       	st.w	r8[0xc],r10
800003ec:	c4 68       	rjmp	80000478 <_malloc_r+0xec>
800003ee:	2f e3       	sub	r3,-2
800003f0:	c4 c8       	rjmp	80000488 <_malloc_r+0xfc>
800003f2:	ee 03 16 09 	lsr	r3,r7,0x9
800003f6:	c0 41       	brne	800003fe <_malloc_r+0x72>
800003f8:	ee 03 16 03 	lsr	r3,r7,0x3
800003fc:	c2 68       	rjmp	80000448 <_malloc_r+0xbc>
800003fe:	58 43       	cp.w	r3,4
80000400:	e0 8b 00 06 	brhi	8000040c <_malloc_r+0x80>
80000404:	ee 03 16 06 	lsr	r3,r7,0x6
80000408:	2c 83       	sub	r3,-56
8000040a:	c1 f8       	rjmp	80000448 <_malloc_r+0xbc>
8000040c:	59 43       	cp.w	r3,20
8000040e:	e0 8b 00 04 	brhi	80000416 <_malloc_r+0x8a>
80000412:	2a 53       	sub	r3,-91
80000414:	c1 a8       	rjmp	80000448 <_malloc_r+0xbc>
80000416:	e0 43 00 54 	cp.w	r3,84
8000041a:	e0 8b 00 06 	brhi	80000426 <_malloc_r+0x9a>
8000041e:	ee 03 16 0c 	lsr	r3,r7,0xc
80000422:	29 23       	sub	r3,-110
80000424:	c1 28       	rjmp	80000448 <_malloc_r+0xbc>
80000426:	e0 43 01 54 	cp.w	r3,340
8000042a:	e0 8b 00 06 	brhi	80000436 <_malloc_r+0xaa>
8000042e:	ee 03 16 0f 	lsr	r3,r7,0xf
80000432:	28 93       	sub	r3,-119
80000434:	c0 a8       	rjmp	80000448 <_malloc_r+0xbc>
80000436:	e0 43 05 54 	cp.w	r3,1364
8000043a:	e0 88 00 04 	brls	80000442 <_malloc_r+0xb6>
8000043e:	37 e3       	mov	r3,126
80000440:	c0 48       	rjmp	80000448 <_malloc_r+0xbc>
80000442:	ee 03 16 12 	lsr	r3,r7,0x12
80000446:	28 43       	sub	r3,-124
80000448:	4a ba       	lddpc	r10,800004f4 <_malloc_r+0x168>
8000044a:	f4 03 00 3a 	add	r10,r10,r3<<0x3
8000044e:	74 36       	ld.w	r6,r10[0xc]
80000450:	c1 98       	rjmp	80000482 <_malloc_r+0xf6>
80000452:	6c 19       	ld.w	r9,r6[0x4]
80000454:	e0 19 ff fc 	andl	r9,0xfffc
80000458:	f2 07 01 0b 	sub	r11,r9,r7
8000045c:	58 fb       	cp.w	r11,15
8000045e:	e0 8a 00 04 	brle	80000466 <_malloc_r+0xda>
80000462:	20 13       	sub	r3,1
80000464:	c1 18       	rjmp	80000486 <_malloc_r+0xfa>
80000466:	6c 38       	ld.w	r8,r6[0xc]
80000468:	58 0b       	cp.w	r11,0
8000046a:	c0 b5       	brlt	80000480 <_malloc_r+0xf4>
8000046c:	6c 2a       	ld.w	r10,r6[0x8]
8000046e:	ec 09 00 09 	add	r9,r6,r9
80000472:	0a 9c       	mov	r12,r5
80000474:	91 2a       	st.w	r8[0x8],r10
80000476:	95 38       	st.w	r10[0xc],r8
80000478:	72 18       	ld.w	r8,r9[0x4]
8000047a:	a1 a8       	sbr	r8,0x0
8000047c:	93 18       	st.w	r9[0x4],r8
8000047e:	cb c8       	rjmp	800005f6 <_malloc_r+0x26a>
80000480:	10 96       	mov	r6,r8
80000482:	14 36       	cp.w	r6,r10
80000484:	ce 71       	brne	80000452 <_malloc_r+0xc6>
80000486:	2f f3       	sub	r3,-1
80000488:	49 ba       	lddpc	r10,800004f4 <_malloc_r+0x168>
8000048a:	f4 cc ff f8 	sub	r12,r10,-8
8000048e:	78 26       	ld.w	r6,r12[0x8]
80000490:	18 36       	cp.w	r6,r12
80000492:	c6 e0       	breq	8000056e <_malloc_r+0x1e2>
80000494:	6c 19       	ld.w	r9,r6[0x4]
80000496:	e0 19 ff fc 	andl	r9,0xfffc
8000049a:	f2 07 01 08 	sub	r8,r9,r7
8000049e:	58 f8       	cp.w	r8,15
800004a0:	e0 89 00 90 	brgt	800005c0 <_malloc_r+0x234>
800004a4:	99 3c       	st.w	r12[0xc],r12
800004a6:	99 2c       	st.w	r12[0x8],r12
800004a8:	58 08       	cp.w	r8,0
800004aa:	c0 55       	brlt	800004b4 <_malloc_r+0x128>
800004ac:	ec 09 00 09 	add	r9,r6,r9
800004b0:	0a 9c       	mov	r12,r5
800004b2:	ce 3b       	rjmp	80000478 <_malloc_r+0xec>
800004b4:	e0 49 01 ff 	cp.w	r9,511
800004b8:	e0 8b 00 13 	brhi	800004de <_malloc_r+0x152>
800004bc:	a3 99       	lsr	r9,0x3
800004be:	f4 09 00 38 	add	r8,r10,r9<<0x3
800004c2:	70 2b       	ld.w	r11,r8[0x8]
800004c4:	8d 38       	st.w	r6[0xc],r8
800004c6:	8d 2b       	st.w	r6[0x8],r11
800004c8:	97 36       	st.w	r11[0xc],r6
800004ca:	91 26       	st.w	r8[0x8],r6
800004cc:	a3 49       	asr	r9,0x2
800004ce:	74 18       	ld.w	r8,r10[0x4]
800004d0:	30 1b       	mov	r11,1
800004d2:	f6 09 09 49 	lsl	r9,r11,r9
800004d6:	f1 e9 10 09 	or	r9,r8,r9
800004da:	95 19       	st.w	r10[0x4],r9
800004dc:	c4 98       	rjmp	8000056e <_malloc_r+0x1e2>
800004de:	f2 0a 16 09 	lsr	r10,r9,0x9
800004e2:	58 4a       	cp.w	r10,4
800004e4:	e0 8b 00 0a 	brhi	800004f8 <_malloc_r+0x16c>
800004e8:	f2 0a 16 06 	lsr	r10,r9,0x6
800004ec:	2c 8a       	sub	r10,-56
800004ee:	c2 38       	rjmp	80000534 <_malloc_r+0x1a8>
800004f0:	80 00       	ld.sh	r0,r0[0x0]
800004f2:	07 dc       	ld.ub	r12,r3[0x5]
800004f4:	00 00       	add	r0,r0
800004f6:	01 18       	ld.sh	r8,r0++
800004f8:	59 4a       	cp.w	r10,20
800004fa:	e0 8b 00 04 	brhi	80000502 <_malloc_r+0x176>
800004fe:	2a 5a       	sub	r10,-91
80000500:	c1 a8       	rjmp	80000534 <_malloc_r+0x1a8>
80000502:	e0 4a 00 54 	cp.w	r10,84
80000506:	e0 8b 00 06 	brhi	80000512 <_malloc_r+0x186>
8000050a:	f2 0a 16 0c 	lsr	r10,r9,0xc
8000050e:	29 2a       	sub	r10,-110
80000510:	c1 28       	rjmp	80000534 <_malloc_r+0x1a8>
80000512:	e0 4a 01 54 	cp.w	r10,340
80000516:	e0 8b 00 06 	brhi	80000522 <_malloc_r+0x196>
8000051a:	f2 0a 16 0f 	lsr	r10,r9,0xf
8000051e:	28 9a       	sub	r10,-119
80000520:	c0 a8       	rjmp	80000534 <_malloc_r+0x1a8>
80000522:	e0 4a 05 54 	cp.w	r10,1364
80000526:	e0 88 00 04 	brls	8000052e <_malloc_r+0x1a2>
8000052a:	37 ea       	mov	r10,126
8000052c:	c0 48       	rjmp	80000534 <_malloc_r+0x1a8>
8000052e:	f2 0a 16 12 	lsr	r10,r9,0x12
80000532:	28 4a       	sub	r10,-124
80000534:	4c 8b       	lddpc	r11,80000654 <_malloc_r+0x2c8>
80000536:	f6 0a 00 34 	add	r4,r11,r10<<0x3
8000053a:	68 28       	ld.w	r8,r4[0x8]
8000053c:	08 38       	cp.w	r8,r4
8000053e:	c0 e1       	brne	8000055a <_malloc_r+0x1ce>
80000540:	76 19       	ld.w	r9,r11[0x4]
80000542:	a3 4a       	asr	r10,0x2
80000544:	30 1e       	mov	lr,1
80000546:	fc 0a 09 4a 	lsl	r10,lr,r10
8000054a:	f3 ea 10 0a 	or	r10,r9,r10
8000054e:	10 99       	mov	r9,r8
80000550:	97 1a       	st.w	r11[0x4],r10
80000552:	c0 a8       	rjmp	80000566 <_malloc_r+0x1da>
80000554:	70 28       	ld.w	r8,r8[0x8]
80000556:	08 38       	cp.w	r8,r4
80000558:	c0 60       	breq	80000564 <_malloc_r+0x1d8>
8000055a:	70 1a       	ld.w	r10,r8[0x4]
8000055c:	e0 1a ff fc 	andl	r10,0xfffc
80000560:	14 39       	cp.w	r9,r10
80000562:	cf 93       	brcs	80000554 <_malloc_r+0x1c8>
80000564:	70 39       	ld.w	r9,r8[0xc]
80000566:	8d 39       	st.w	r6[0xc],r9
80000568:	8d 28       	st.w	r6[0x8],r8
8000056a:	91 36       	st.w	r8[0xc],r6
8000056c:	93 26       	st.w	r9[0x8],r6
8000056e:	e6 08 14 02 	asr	r8,r3,0x2
80000572:	30 1b       	mov	r11,1
80000574:	4b 84       	lddpc	r4,80000654 <_malloc_r+0x2c8>
80000576:	f6 08 09 4b 	lsl	r11,r11,r8
8000057a:	68 18       	ld.w	r8,r4[0x4]
8000057c:	10 3b       	cp.w	r11,r8
8000057e:	e0 8b 00 6f 	brhi	8000065c <_malloc_r+0x2d0>
80000582:	f7 e8 00 09 	and	r9,r11,r8
80000586:	c0 b1       	brne	8000059c <_malloc_r+0x210>
80000588:	e0 13 ff fc 	andl	r3,0xfffc
8000058c:	a1 7b       	lsl	r11,0x1
8000058e:	2f c3       	sub	r3,-4
80000590:	c0 38       	rjmp	80000596 <_malloc_r+0x20a>
80000592:	2f c3       	sub	r3,-4
80000594:	a1 7b       	lsl	r11,0x1
80000596:	f7 e8 00 09 	and	r9,r11,r8
8000059a:	cf c0       	breq	80000592 <_malloc_r+0x206>
8000059c:	e8 03 00 3e 	add	lr,r4,r3<<0x3
800005a0:	06 92       	mov	r2,r3
800005a2:	1c 91       	mov	r1,lr
800005a4:	62 36       	ld.w	r6,r1[0xc]
800005a6:	c2 e8       	rjmp	80000602 <_malloc_r+0x276>
800005a8:	6c 1a       	ld.w	r10,r6[0x4]
800005aa:	e0 1a ff fc 	andl	r10,0xfffc
800005ae:	f4 07 01 08 	sub	r8,r10,r7
800005b2:	58 f8       	cp.w	r8,15
800005b4:	e0 8a 00 15 	brle	800005de <_malloc_r+0x252>
800005b8:	6c 3a       	ld.w	r10,r6[0xc]
800005ba:	6c 29       	ld.w	r9,r6[0x8]
800005bc:	95 29       	st.w	r10[0x8],r9
800005be:	93 3a       	st.w	r9[0xc],r10
800005c0:	0e 99       	mov	r9,r7
800005c2:	ec 07 00 07 	add	r7,r6,r7
800005c6:	a1 a9       	sbr	r9,0x0
800005c8:	99 37       	st.w	r12[0xc],r7
800005ca:	99 27       	st.w	r12[0x8],r7
800005cc:	8d 19       	st.w	r6[0x4],r9
800005ce:	ee 08 09 08 	st.w	r7[r8],r8
800005d2:	8f 2c       	st.w	r7[0x8],r12
800005d4:	8f 3c       	st.w	r7[0xc],r12
800005d6:	a1 a8       	sbr	r8,0x0
800005d8:	0a 9c       	mov	r12,r5
800005da:	8f 18       	st.w	r7[0x4],r8
800005dc:	c0 d8       	rjmp	800005f6 <_malloc_r+0x26a>
800005de:	6c 39       	ld.w	r9,r6[0xc]
800005e0:	58 08       	cp.w	r8,0
800005e2:	c0 f5       	brlt	80000600 <_malloc_r+0x274>
800005e4:	ec 0a 00 0a 	add	r10,r6,r10
800005e8:	74 18       	ld.w	r8,r10[0x4]
800005ea:	a1 a8       	sbr	r8,0x0
800005ec:	0a 9c       	mov	r12,r5
800005ee:	95 18       	st.w	r10[0x4],r8
800005f0:	6c 28       	ld.w	r8,r6[0x8]
800005f2:	93 28       	st.w	r9[0x8],r8
800005f4:	91 39       	st.w	r8[0xc],r9
800005f6:	f0 1f 00 19 	mcall	80000658 <_malloc_r+0x2cc>
800005fa:	ec cc ff f8 	sub	r12,r6,-8
800005fe:	d8 32       	popm	r0-r7,pc
80000600:	12 96       	mov	r6,r9
80000602:	02 36       	cp.w	r6,r1
80000604:	cd 21       	brne	800005a8 <_malloc_r+0x21c>
80000606:	2f f2       	sub	r2,-1
80000608:	f1 d2 c0 02 	bfextu	r8,r2,0x0,0x2
8000060c:	c0 30       	breq	80000612 <_malloc_r+0x286>
8000060e:	2f 81       	sub	r1,-8
80000610:	cc ab       	rjmp	800005a4 <_malloc_r+0x218>
80000612:	1c 98       	mov	r8,lr
80000614:	f3 d3 c0 02 	bfextu	r9,r3,0x0,0x2
80000618:	c0 81       	brne	80000628 <_malloc_r+0x29c>
8000061a:	68 19       	ld.w	r9,r4[0x4]
8000061c:	f6 08 11 ff 	rsub	r8,r11,-1
80000620:	f3 e8 00 08 	and	r8,r9,r8
80000624:	89 18       	st.w	r4[0x4],r8
80000626:	c0 78       	rjmp	80000634 <_malloc_r+0x2a8>
80000628:	f0 c9 00 08 	sub	r9,r8,8
8000062c:	20 13       	sub	r3,1
8000062e:	70 08       	ld.w	r8,r8[0x0]
80000630:	12 38       	cp.w	r8,r9
80000632:	cf 10       	breq	80000614 <_malloc_r+0x288>
80000634:	a1 7b       	lsl	r11,0x1
80000636:	68 18       	ld.w	r8,r4[0x4]
80000638:	10 3b       	cp.w	r11,r8
8000063a:	e0 8b 00 11 	brhi	8000065c <_malloc_r+0x2d0>
8000063e:	58 0b       	cp.w	r11,0
80000640:	c0 e0       	breq	8000065c <_malloc_r+0x2d0>
80000642:	04 93       	mov	r3,r2
80000644:	c0 38       	rjmp	8000064a <_malloc_r+0x2be>
80000646:	2f c3       	sub	r3,-4
80000648:	a1 7b       	lsl	r11,0x1
8000064a:	f7 e8 00 09 	and	r9,r11,r8
8000064e:	ca 71       	brne	8000059c <_malloc_r+0x210>
80000650:	cf bb       	rjmp	80000646 <_malloc_r+0x2ba>
80000652:	00 00       	add	r0,r0
80000654:	00 00       	add	r0,r0
80000656:	01 18       	ld.sh	r8,r0++
80000658:	80 00       	ld.sh	r0,r0[0x0]
8000065a:	07 de       	ld.ub	lr,r3[0x5]
8000065c:	68 23       	ld.w	r3,r4[0x8]
8000065e:	66 12       	ld.w	r2,r3[0x4]
80000660:	e0 12 ff fc 	andl	r2,0xfffc
80000664:	0e 32       	cp.w	r2,r7
80000666:	5f 39       	srlo	r9
80000668:	e4 07 01 08 	sub	r8,r2,r7
8000066c:	58 f8       	cp.w	r8,15
8000066e:	5f aa       	srle	r10
80000670:	f5 e9 10 09 	or	r9,r10,r9
80000674:	e0 80 00 a2 	breq	800007b8 <_malloc_r+0x42c>
80000678:	4c 88       	lddpc	r8,80000798 <_malloc_r+0x40c>
8000067a:	70 01       	ld.w	r1,r8[0x0]
8000067c:	4c 88       	lddpc	r8,8000079c <_malloc_r+0x410>
8000067e:	2f 01       	sub	r1,-16
80000680:	70 08       	ld.w	r8,r8[0x0]
80000682:	0e 01       	add	r1,r7
80000684:	5b f8       	cp.w	r8,-1
80000686:	c0 40       	breq	8000068e <_malloc_r+0x302>
80000688:	28 11       	sub	r1,-127
8000068a:	e0 11 ff 80 	andl	r1,0xff80
8000068e:	02 9b       	mov	r11,r1
80000690:	0a 9c       	mov	r12,r5
80000692:	f0 1f 00 44 	mcall	800007a0 <_malloc_r+0x414>
80000696:	18 96       	mov	r6,r12
80000698:	5b fc       	cp.w	r12,-1
8000069a:	c6 e0       	breq	80000776 <_malloc_r+0x3ea>
8000069c:	e6 02 00 08 	add	r8,r3,r2
800006a0:	10 3c       	cp.w	r12,r8
800006a2:	c0 32       	brcc	800006a8 <_malloc_r+0x31c>
800006a4:	08 33       	cp.w	r3,r4
800006a6:	c6 81       	brne	80000776 <_malloc_r+0x3ea>
800006a8:	4b fa       	lddpc	r10,800007a4 <_malloc_r+0x418>
800006aa:	74 09       	ld.w	r9,r10[0x0]
800006ac:	e2 09 00 09 	add	r9,r1,r9
800006b0:	95 09       	st.w	r10[0x0],r9
800006b2:	10 36       	cp.w	r6,r8
800006b4:	c0 a1       	brne	800006c8 <_malloc_r+0x33c>
800006b6:	f5 d6 c0 07 	bfextu	r10,r6,0x0,0x7
800006ba:	c0 71       	brne	800006c8 <_malloc_r+0x33c>
800006bc:	e2 02 00 02 	add	r2,r1,r2
800006c0:	68 28       	ld.w	r8,r4[0x8]
800006c2:	a1 a2       	sbr	r2,0x0
800006c4:	91 12       	st.w	r8[0x4],r2
800006c6:	c4 c8       	rjmp	8000075e <_malloc_r+0x3d2>
800006c8:	4b 5a       	lddpc	r10,8000079c <_malloc_r+0x410>
800006ca:	74 0b       	ld.w	r11,r10[0x0]
800006cc:	5b fb       	cp.w	r11,-1
800006ce:	c0 31       	brne	800006d4 <_malloc_r+0x348>
800006d0:	95 06       	st.w	r10[0x0],r6
800006d2:	c0 68       	rjmp	800006de <_malloc_r+0x352>
800006d4:	ec 09 00 09 	add	r9,r6,r9
800006d8:	4b 3a       	lddpc	r10,800007a4 <_malloc_r+0x418>
800006da:	10 19       	sub	r9,r8
800006dc:	95 09       	st.w	r10[0x0],r9
800006de:	f1 d6 c0 03 	bfextu	r8,r6,0x0,0x3
800006e2:	f0 09 11 08 	rsub	r9,r8,8
800006e6:	58 08       	cp.w	r8,0
800006e8:	f2 08 17 10 	movne	r8,r9
800006ec:	ed d8 e1 06 	addne	r6,r6,r8
800006f0:	28 08       	sub	r8,-128
800006f2:	ec 01 00 01 	add	r1,r6,r1
800006f6:	0a 9c       	mov	r12,r5
800006f8:	e3 d1 c0 07 	bfextu	r1,r1,0x0,0x7
800006fc:	f0 01 01 01 	sub	r1,r8,r1
80000700:	02 9b       	mov	r11,r1
80000702:	f0 1f 00 28 	mcall	800007a0 <_malloc_r+0x414>
80000706:	4a 88       	lddpc	r8,800007a4 <_malloc_r+0x418>
80000708:	5b fc       	cp.w	r12,-1
8000070a:	ec 0c 17 00 	moveq	r12,r6
8000070e:	f9 b1 00 00 	moveq	r1,0
80000712:	70 09       	ld.w	r9,r8[0x0]
80000714:	0c 1c       	sub	r12,r6
80000716:	89 26       	st.w	r4[0x8],r6
80000718:	02 0c       	add	r12,r1
8000071a:	12 01       	add	r1,r9
8000071c:	a1 ac       	sbr	r12,0x0
8000071e:	91 01       	st.w	r8[0x0],r1
80000720:	8d 1c       	st.w	r6[0x4],r12
80000722:	08 33       	cp.w	r3,r4
80000724:	c1 d0       	breq	8000075e <_malloc_r+0x3d2>
80000726:	58 f2       	cp.w	r2,15
80000728:	e0 8b 00 05 	brhi	80000732 <_malloc_r+0x3a6>
8000072c:	30 18       	mov	r8,1
8000072e:	8d 18       	st.w	r6[0x4],r8
80000730:	c2 38       	rjmp	80000776 <_malloc_r+0x3ea>
80000732:	30 59       	mov	r9,5
80000734:	20 c2       	sub	r2,12
80000736:	e0 12 ff f8 	andl	r2,0xfff8
8000073a:	e6 02 00 08 	add	r8,r3,r2
8000073e:	91 29       	st.w	r8[0x8],r9
80000740:	91 19       	st.w	r8[0x4],r9
80000742:	66 18       	ld.w	r8,r3[0x4]
80000744:	f1 d8 c0 01 	bfextu	r8,r8,0x0,0x1
80000748:	e5 e8 10 08 	or	r8,r2,r8
8000074c:	87 18       	st.w	r3[0x4],r8
8000074e:	58 f2       	cp.w	r2,15
80000750:	e0 88 00 07 	brls	8000075e <_malloc_r+0x3d2>
80000754:	e6 cb ff f8 	sub	r11,r3,-8
80000758:	0a 9c       	mov	r12,r5
8000075a:	f0 1f 00 14 	mcall	800007a8 <_malloc_r+0x41c>
8000075e:	49 49       	lddpc	r9,800007ac <_malloc_r+0x420>
80000760:	72 0a       	ld.w	r10,r9[0x0]
80000762:	49 18       	lddpc	r8,800007a4 <_malloc_r+0x418>
80000764:	70 08       	ld.w	r8,r8[0x0]
80000766:	14 38       	cp.w	r8,r10
80000768:	f3 f8 ba 00 	st.whi	r9[0x0],r8
8000076c:	49 19       	lddpc	r9,800007b0 <_malloc_r+0x424>
8000076e:	72 0a       	ld.w	r10,r9[0x0]
80000770:	14 38       	cp.w	r8,r10
80000772:	f3 f8 ba 00 	st.whi	r9[0x0],r8
80000776:	68 28       	ld.w	r8,r4[0x8]
80000778:	70 18       	ld.w	r8,r8[0x4]
8000077a:	e0 18 ff fc 	andl	r8,0xfffc
8000077e:	0e 38       	cp.w	r8,r7
80000780:	5f 39       	srlo	r9
80000782:	0e 18       	sub	r8,r7
80000784:	58 f8       	cp.w	r8,15
80000786:	5f aa       	srle	r10
80000788:	f5 e9 10 09 	or	r9,r10,r9
8000078c:	c1 60       	breq	800007b8 <_malloc_r+0x42c>
8000078e:	0a 9c       	mov	r12,r5
80000790:	f0 1f 00 09 	mcall	800007b4 <_malloc_r+0x428>
80000794:	d8 3a       	popm	r0-r7,pc,r12=0
80000796:	00 00       	add	r0,r0
80000798:	00 00       	add	r0,r0
8000079a:	05 3c       	ld.ub	r12,r2++
8000079c:	00 00       	add	r0,r0
8000079e:	05 24       	ld.uh	r4,r2++
800007a0:	80 00       	ld.sh	r0,r0[0x0]
800007a2:	07 e0       	ld.ub	r0,r3[0x6]
800007a4:	00 00       	add	r0,r0
800007a6:	05 40       	ld.w	r0,--r2
800007a8:	80 00       	ld.sh	r0,r0[0x0]
800007aa:	08 b0       	st.h	r4++,r0
800007ac:	00 00       	add	r0,r0
800007ae:	05 38       	ld.ub	r8,r2++
800007b0:	00 00       	add	r0,r0
800007b2:	05 34       	ld.ub	r4,r2++
800007b4:	80 00       	ld.sh	r0,r0[0x0]
800007b6:	07 de       	ld.ub	lr,r3[0x5]
800007b8:	68 26       	ld.w	r6,r4[0x8]
800007ba:	a1 a8       	sbr	r8,0x0
800007bc:	0e 99       	mov	r9,r7
800007be:	a1 a9       	sbr	r9,0x0
800007c0:	8d 19       	st.w	r6[0x4],r9
800007c2:	ec 07 00 07 	add	r7,r6,r7
800007c6:	0a 9c       	mov	r12,r5
800007c8:	89 27       	st.w	r4[0x8],r7
800007ca:	8f 18       	st.w	r7[0x4],r8
800007cc:	f0 1f 00 03 	mcall	800007d8 <_malloc_r+0x44c>
800007d0:	ec cc ff f8 	sub	r12,r6,-8
800007d4:	d8 32       	popm	r0-r7,pc
800007d6:	00 00       	add	r0,r0
800007d8:	80 00       	ld.sh	r0,r0[0x0]
800007da:	07 de       	ld.ub	lr,r3[0x5]

800007dc <__malloc_lock>:
800007dc:	5e fc       	retal	r12

800007de <__malloc_unlock>:
800007de:	5e fc       	retal	r12

800007e0 <_sbrk_r>:
800007e0:	d4 21       	pushm	r4-r7,lr
800007e2:	30 08       	mov	r8,0
800007e4:	18 97       	mov	r7,r12
800007e6:	48 76       	lddpc	r6,80000800 <_sbrk_r+0x20>
800007e8:	16 9c       	mov	r12,r11
800007ea:	8d 08       	st.w	r6[0x0],r8
800007ec:	f0 1f 00 06 	mcall	80000804 <_sbrk_r+0x24>
800007f0:	5b fc       	cp.w	r12,-1
800007f2:	c0 51       	brne	800007fc <_sbrk_r+0x1c>
800007f4:	6c 08       	ld.w	r8,r6[0x0]
800007f6:	58 08       	cp.w	r8,0
800007f8:	ef f8 1a 03 	st.wne	r7[0xc],r8
800007fc:	d8 22       	popm	r4-r7,pc
800007fe:	00 00       	add	r0,r0
80000800:	00 00       	add	r0,r0
80000802:	05 8c       	ld.ub	r12,r2[0x0]
80000804:	80 00       	ld.sh	r0,r0[0x0]
80000806:	01 90       	ld.ub	r0,r0[0x1]

80000808 <_malloc_trim_r>:
80000808:	d4 21       	pushm	r4-r7,lr
8000080a:	16 95       	mov	r5,r11
8000080c:	18 97       	mov	r7,r12
8000080e:	f0 1f 00 23 	mcall	80000898 <_malloc_trim_r+0x90>
80000812:	4a 34       	lddpc	r4,8000089c <_malloc_trim_r+0x94>
80000814:	68 28       	ld.w	r8,r4[0x8]
80000816:	70 16       	ld.w	r6,r8[0x4]
80000818:	e0 16 ff fc 	andl	r6,0xfffc
8000081c:	ec c8 ff 91 	sub	r8,r6,-111
80000820:	f0 05 01 05 	sub	r5,r8,r5
80000824:	e0 15 ff 80 	andl	r5,0xff80
80000828:	ea c5 00 80 	sub	r5,r5,128
8000082c:	e0 45 00 7f 	cp.w	r5,127
80000830:	e0 8a 00 23 	brle	80000876 <_malloc_trim_r+0x6e>
80000834:	30 0b       	mov	r11,0
80000836:	0e 9c       	mov	r12,r7
80000838:	f0 1f 00 1a 	mcall	800008a0 <_malloc_trim_r+0x98>
8000083c:	68 28       	ld.w	r8,r4[0x8]
8000083e:	0c 08       	add	r8,r6
80000840:	10 3c       	cp.w	r12,r8
80000842:	c1 a1       	brne	80000876 <_malloc_trim_r+0x6e>
80000844:	ea 0b 11 00 	rsub	r11,r5,0
80000848:	0e 9c       	mov	r12,r7
8000084a:	f0 1f 00 16 	mcall	800008a0 <_malloc_trim_r+0x98>
8000084e:	5b fc       	cp.w	r12,-1
80000850:	c1 71       	brne	8000087e <_malloc_trim_r+0x76>
80000852:	30 0b       	mov	r11,0
80000854:	0e 9c       	mov	r12,r7
80000856:	f0 1f 00 13 	mcall	800008a0 <_malloc_trim_r+0x98>
8000085a:	68 28       	ld.w	r8,r4[0x8]
8000085c:	f8 08 01 09 	sub	r9,r12,r8
80000860:	58 f9       	cp.w	r9,15
80000862:	e0 8a 00 0a 	brle	80000876 <_malloc_trim_r+0x6e>
80000866:	a1 a9       	sbr	r9,0x0
80000868:	91 19       	st.w	r8[0x4],r9
8000086a:	48 f8       	lddpc	r8,800008a4 <_malloc_trim_r+0x9c>
8000086c:	70 09       	ld.w	r9,r8[0x0]
8000086e:	48 f8       	lddpc	r8,800008a8 <_malloc_trim_r+0xa0>
80000870:	f8 09 01 09 	sub	r9,r12,r9
80000874:	91 09       	st.w	r8[0x0],r9
80000876:	0e 9c       	mov	r12,r7
80000878:	f0 1f 00 0d 	mcall	800008ac <_malloc_trim_r+0xa4>
8000087c:	d8 2a       	popm	r4-r7,pc,r12=0
8000087e:	68 28       	ld.w	r8,r4[0x8]
80000880:	0a 16       	sub	r6,r5
80000882:	a1 a6       	sbr	r6,0x0
80000884:	91 16       	st.w	r8[0x4],r6
80000886:	48 98       	lddpc	r8,800008a8 <_malloc_trim_r+0xa0>
80000888:	70 09       	ld.w	r9,r8[0x0]
8000088a:	0a 19       	sub	r9,r5
8000088c:	0e 9c       	mov	r12,r7
8000088e:	91 09       	st.w	r8[0x0],r9
80000890:	f0 1f 00 07 	mcall	800008ac <_malloc_trim_r+0xa4>
80000894:	da 2a       	popm	r4-r7,pc,r12=1
80000896:	00 00       	add	r0,r0
80000898:	80 00       	ld.sh	r0,r0[0x0]
8000089a:	07 dc       	ld.ub	r12,r3[0x5]
8000089c:	00 00       	add	r0,r0
8000089e:	01 18       	ld.sh	r8,r0++
800008a0:	80 00       	ld.sh	r0,r0[0x0]
800008a2:	07 e0       	ld.ub	r0,r3[0x6]
800008a4:	00 00       	add	r0,r0
800008a6:	05 24       	ld.uh	r4,r2++
800008a8:	00 00       	add	r0,r0
800008aa:	05 40       	ld.w	r0,--r2
800008ac:	80 00       	ld.sh	r0,r0[0x0]
800008ae:	07 de       	ld.ub	lr,r3[0x5]

800008b0 <_free_r>:
800008b0:	d4 21       	pushm	r4-r7,lr
800008b2:	16 96       	mov	r6,r11
800008b4:	18 97       	mov	r7,r12
800008b6:	58 0b       	cp.w	r11,0
800008b8:	e0 80 00 c8 	breq	80000a48 <_free_r+0x198>
800008bc:	f0 1f 00 4c 	mcall	800009ec <_free_r+0x13c>
800008c0:	20 86       	sub	r6,8
800008c2:	4c ca       	lddpc	r10,800009f0 <_free_r+0x140>
800008c4:	6c 18       	ld.w	r8,r6[0x4]
800008c6:	74 2e       	ld.w	lr,r10[0x8]
800008c8:	f9 d8 c0 01 	bfextu	r12,r8,0x0,0x1
800008cc:	a1 c8       	cbr	r8,0x0
800008ce:	ec 08 00 09 	add	r9,r6,r8
800008d2:	72 1b       	ld.w	r11,r9[0x4]
800008d4:	e0 1b ff fc 	andl	r11,0xfffc
800008d8:	1c 39       	cp.w	r9,lr
800008da:	c1 d1       	brne	80000914 <_free_r+0x64>
800008dc:	f6 08 00 08 	add	r8,r11,r8
800008e0:	58 0c       	cp.w	r12,0
800008e2:	c0 81       	brne	800008f2 <_free_r+0x42>
800008e4:	6c 09       	ld.w	r9,r6[0x0]
800008e6:	12 16       	sub	r6,r9
800008e8:	12 08       	add	r8,r9
800008ea:	6c 3b       	ld.w	r11,r6[0xc]
800008ec:	6c 29       	ld.w	r9,r6[0x8]
800008ee:	97 29       	st.w	r11[0x8],r9
800008f0:	93 3b       	st.w	r9[0xc],r11
800008f2:	10 99       	mov	r9,r8
800008f4:	95 26       	st.w	r10[0x8],r6
800008f6:	a1 a9       	sbr	r9,0x0
800008f8:	8d 19       	st.w	r6[0x4],r9
800008fa:	4b f9       	lddpc	r9,800009f4 <_free_r+0x144>
800008fc:	72 09       	ld.w	r9,r9[0x0]
800008fe:	12 38       	cp.w	r8,r9
80000900:	c0 63       	brcs	8000090c <_free_r+0x5c>
80000902:	4b e8       	lddpc	r8,800009f8 <_free_r+0x148>
80000904:	0e 9c       	mov	r12,r7
80000906:	70 0b       	ld.w	r11,r8[0x0]
80000908:	f0 1f 00 3d 	mcall	800009fc <_free_r+0x14c>
8000090c:	0e 9c       	mov	r12,r7
8000090e:	f0 1f 00 3d 	mcall	80000a00 <_free_r+0x150>
80000912:	d8 22       	popm	r4-r7,pc
80000914:	93 1b       	st.w	r9[0x4],r11
80000916:	58 0c       	cp.w	r12,0
80000918:	c0 30       	breq	8000091e <_free_r+0x6e>
8000091a:	30 0c       	mov	r12,0
8000091c:	c1 08       	rjmp	8000093c <_free_r+0x8c>
8000091e:	6c 0e       	ld.w	lr,r6[0x0]
80000920:	f4 c5 ff f8 	sub	r5,r10,-8
80000924:	1c 16       	sub	r6,lr
80000926:	1c 08       	add	r8,lr
80000928:	6c 2e       	ld.w	lr,r6[0x8]
8000092a:	0a 3e       	cp.w	lr,r5
8000092c:	f9 bc 00 01 	moveq	r12,1
80000930:	ed f5 10 03 	ld.wne	r5,r6[0xc]
80000934:	eb fe 1a 02 	st.wne	r5[0x8],lr
80000938:	fd f5 1a 03 	st.wne	lr[0xc],r5
8000093c:	f2 0b 00 0e 	add	lr,r9,r11
80000940:	7c 1e       	ld.w	lr,lr[0x4]
80000942:	ed be 00 00 	bld	lr,0x0
80000946:	c1 30       	breq	8000096c <_free_r+0xbc>
80000948:	16 08       	add	r8,r11
8000094a:	58 0c       	cp.w	r12,0
8000094c:	c0 c1       	brne	80000964 <_free_r+0xb4>
8000094e:	4a 9e       	lddpc	lr,800009f0 <_free_r+0x140>
80000950:	72 2b       	ld.w	r11,r9[0x8]
80000952:	2f 8e       	sub	lr,-8
80000954:	1c 3b       	cp.w	r11,lr
80000956:	c0 71       	brne	80000964 <_free_r+0xb4>
80000958:	97 36       	st.w	r11[0xc],r6
8000095a:	97 26       	st.w	r11[0x8],r6
8000095c:	8d 2b       	st.w	r6[0x8],r11
8000095e:	8d 3b       	st.w	r6[0xc],r11
80000960:	30 1c       	mov	r12,1
80000962:	c0 58       	rjmp	8000096c <_free_r+0xbc>
80000964:	72 2b       	ld.w	r11,r9[0x8]
80000966:	72 39       	ld.w	r9,r9[0xc]
80000968:	93 2b       	st.w	r9[0x8],r11
8000096a:	97 39       	st.w	r11[0xc],r9
8000096c:	10 99       	mov	r9,r8
8000096e:	ec 08 09 08 	st.w	r6[r8],r8
80000972:	a1 a9       	sbr	r9,0x0
80000974:	8d 19       	st.w	r6[0x4],r9
80000976:	58 0c       	cp.w	r12,0
80000978:	c6 51       	brne	80000a42 <_free_r+0x192>
8000097a:	e0 48 01 ff 	cp.w	r8,511
8000097e:	e0 8b 00 13 	brhi	800009a4 <_free_r+0xf4>
80000982:	a3 98       	lsr	r8,0x3
80000984:	f4 08 00 39 	add	r9,r10,r8<<0x3
80000988:	72 2b       	ld.w	r11,r9[0x8]
8000098a:	8d 39       	st.w	r6[0xc],r9
8000098c:	8d 2b       	st.w	r6[0x8],r11
8000098e:	97 36       	st.w	r11[0xc],r6
80000990:	93 26       	st.w	r9[0x8],r6
80000992:	a3 48       	asr	r8,0x2
80000994:	74 19       	ld.w	r9,r10[0x4]
80000996:	30 1b       	mov	r11,1
80000998:	f6 08 09 48 	lsl	r8,r11,r8
8000099c:	f3 e8 10 08 	or	r8,r9,r8
800009a0:	95 18       	st.w	r10[0x4],r8
800009a2:	c5 08       	rjmp	80000a42 <_free_r+0x192>
800009a4:	f0 0b 16 09 	lsr	r11,r8,0x9
800009a8:	58 4b       	cp.w	r11,4
800009aa:	e0 8b 00 06 	brhi	800009b6 <_free_r+0x106>
800009ae:	f0 0b 16 06 	lsr	r11,r8,0x6
800009b2:	2c 8b       	sub	r11,-56
800009b4:	c2 b8       	rjmp	80000a0a <_free_r+0x15a>
800009b6:	59 4b       	cp.w	r11,20
800009b8:	e0 8b 00 04 	brhi	800009c0 <_free_r+0x110>
800009bc:	2a 5b       	sub	r11,-91
800009be:	c2 68       	rjmp	80000a0a <_free_r+0x15a>
800009c0:	e0 4b 00 54 	cp.w	r11,84
800009c4:	e0 8b 00 06 	brhi	800009d0 <_free_r+0x120>
800009c8:	f0 0b 16 0c 	lsr	r11,r8,0xc
800009cc:	29 2b       	sub	r11,-110
800009ce:	c1 e8       	rjmp	80000a0a <_free_r+0x15a>
800009d0:	e0 4b 01 54 	cp.w	r11,340
800009d4:	e0 8b 00 06 	brhi	800009e0 <_free_r+0x130>
800009d8:	f0 0b 16 0f 	lsr	r11,r8,0xf
800009dc:	28 9b       	sub	r11,-119
800009de:	c1 68       	rjmp	80000a0a <_free_r+0x15a>
800009e0:	e0 4b 05 54 	cp.w	r11,1364
800009e4:	e0 88 00 10 	brls	80000a04 <_free_r+0x154>
800009e8:	37 eb       	mov	r11,126
800009ea:	c1 08       	rjmp	80000a0a <_free_r+0x15a>
800009ec:	80 00       	ld.sh	r0,r0[0x0]
800009ee:	07 dc       	ld.ub	r12,r3[0x5]
800009f0:	00 00       	add	r0,r0
800009f2:	01 18       	ld.sh	r8,r0++
800009f4:	00 00       	add	r0,r0
800009f6:	05 20       	ld.uh	r0,r2++
800009f8:	00 00       	add	r0,r0
800009fa:	05 3c       	ld.ub	r12,r2++
800009fc:	80 00       	ld.sh	r0,r0[0x0]
800009fe:	08 08       	add	r8,r4
80000a00:	80 00       	ld.sh	r0,r0[0x0]
80000a02:	07 de       	ld.ub	lr,r3[0x5]
80000a04:	f0 0b 16 12 	lsr	r11,r8,0x12
80000a08:	28 4b       	sub	r11,-124
80000a0a:	f4 0b 00 3c 	add	r12,r10,r11<<0x3
80000a0e:	78 29       	ld.w	r9,r12[0x8]
80000a10:	18 39       	cp.w	r9,r12
80000a12:	c0 e1       	brne	80000a2e <_free_r+0x17e>
80000a14:	74 18       	ld.w	r8,r10[0x4]
80000a16:	a3 4b       	asr	r11,0x2
80000a18:	30 1c       	mov	r12,1
80000a1a:	f8 0b 09 4b 	lsl	r11,r12,r11
80000a1e:	f1 eb 10 0b 	or	r11,r8,r11
80000a22:	12 98       	mov	r8,r9
80000a24:	95 1b       	st.w	r10[0x4],r11
80000a26:	c0 a8       	rjmp	80000a3a <_free_r+0x18a>
80000a28:	72 29       	ld.w	r9,r9[0x8]
80000a2a:	18 39       	cp.w	r9,r12
80000a2c:	c0 60       	breq	80000a38 <_free_r+0x188>
80000a2e:	72 1a       	ld.w	r10,r9[0x4]
80000a30:	e0 1a ff fc 	andl	r10,0xfffc
80000a34:	14 38       	cp.w	r8,r10
80000a36:	cf 93       	brcs	80000a28 <_free_r+0x178>
80000a38:	72 38       	ld.w	r8,r9[0xc]
80000a3a:	8d 38       	st.w	r6[0xc],r8
80000a3c:	8d 29       	st.w	r6[0x8],r9
80000a3e:	93 36       	st.w	r9[0xc],r6
80000a40:	91 26       	st.w	r8[0x8],r6
80000a42:	0e 9c       	mov	r12,r7
80000a44:	f0 1f 00 02 	mcall	80000a4c <_free_r+0x19c>
80000a48:	d8 22       	popm	r4-r7,pc
80000a4a:	00 00       	add	r0,r0
80000a4c:	80 00       	ld.sh	r0,r0[0x0]
80000a4e:	07 de       	ld.ub	lr,r3[0x5]

80000a50 <__do_global_ctors_aux>:
80000a50:	d4 21       	pushm	r4-r7,lr
80000a52:	48 57       	lddpc	r7,80000a64 <__do_global_ctors_aux+0x14>
80000a54:	c0 28       	rjmp	80000a58 <__do_global_ctors_aux+0x8>
80000a56:	5d 18       	icall	r8
80000a58:	20 47       	sub	r7,4
80000a5a:	6e 08       	ld.w	r8,r7[0x0]
80000a5c:	5b f8       	cp.w	r8,-1
80000a5e:	cf c1       	brne	80000a56 <__do_global_ctors_aux+0x6>
80000a60:	d8 22       	popm	r4-r7,pc
80000a62:	00 00       	add	r0,r0
80000a64:	00 00       	add	r0,r0
80000a66:	00 08       	add	r8,r0

Disassembly of section .fini:

80000a68 <_fini>:
80000a68:	eb cd 40 40 	pushm	r6,lr
80000a6c:	48 26       	lddpc	r6,80000a74 <_fini+0xc>
80000a6e:	1e 26       	rsub	r6,pc
80000a70:	c0 48       	rjmp	80000a78 <_fini+0x10>
80000a72:	00 00       	add	r0,r0
80000a74:	80 00       	ld.sh	r0,r0[0x0]
80000a76:	0a 56       	eor	r6,r5
80000a78:	f0 16 00 02 	mcall	r6[8]
80000a7c:	e3 cd 80 40 	ldm	sp++,r6,pc
